; Function Attrs: mustprogress nounwind uwtable
define internal fastcc noundef zeroext i1 @_ZL10seenBeforePKN5clang4StmtES2_S2_(ptr noundef nonnull %0, ptr noundef %1, ptr noundef %2) unnamed_addr #0 {
  %4 = alloca %"class.llvm::iterator_range.1321", align 8
  %5 = alloca %"struct.clang::ConstStmtIterator", align 8
  call void @llvm.lifetime.start.p0(i64 48, ptr nonnull %4)
  call void @_ZN5clang4Stmt8childrenEv(ptr dead_on_unwind nonnull writable sret(%"class.llvm::iterator_range.1321") align 8 %4, ptr noundef nonnull align 8 dereferenceable(8) %0) #17, !noalias !485
  call void @llvm.memcpy.p0.p0.i64(ptr noundef nonnull align 8 dereferenceable(24) %5, ptr noundef nonnull align 8 dereferenceable(24) %4, i64 24, i1 false)
  %6 = getelementptr inbounds nuw i8, ptr %4, i64 24
  %.sroa.216.24.copyload = load ptr, ptr %6, align 8
  %.sroa.4.24..sroa_idx = getelementptr inbounds i8, ptr %4, i64 32
  %.sroa.4.24.copyload = load i64, ptr %.sroa.4.24..sroa_idx, align 8
  call void @llvm.lifetime.end.p0(i64 48, ptr nonnull %4)
  %7 = getelementptr inbounds nuw i8, ptr %5, i64 8
  %8 = load ptr, ptr %5, align 8
  %9 = icmp ne ptr %8, %.sroa.216.24.copyload
  %10 = load i64, ptr %7, align 8
  %11 = icmp ne i64 %10, %.sroa.4.24.copyload
  %.not3.i17 = select i1 %9, i1 true, i1 %11
  br i1 %.not3.i17, label %.lr.ph, label %.loopexit

.lr.ph:                                           ; preds = %3, %_ZN5clang16StmtIteratorImplINS_17ConstStmtIteratorEPKNS_4StmtEEppEv.exit
  %12 = phi i64 [ %37, %_ZN5clang16StmtIteratorImplINS_17ConstStmtIteratorEPKNS_4StmtEEppEv.exit ], [ %10, %3 ]
  %13 = phi ptr [ %35, %_ZN5clang16StmtIteratorImplINS_17ConstStmtIteratorEPKNS_4StmtEEppEv.exit ], [ %8, %3 ]
  %14 = and i64 %12, 3
  %15 = icmp eq i64 %14, 0
  br i1 %15, label %_ZNK5clang16StmtIteratorImplINS_17ConstStmtIteratorEPKNS_4StmtEEdeEv.exit, label %16

16:                                               ; preds = %.lr.ph
  %17 = call noundef nonnull align 8 dereferenceable(8) ptr @_ZNK5clang16StmtIteratorBase11GetDeclExprEv(ptr noundef nonnull align 8 dereferenceable(24) %5) #17
  br label %_ZNK5clang16StmtIteratorImplINS_17ConstStmtIteratorEPKNS_4StmtEEdeEv.exit

_ZNK5clang16StmtIteratorImplINS_17ConstStmtIteratorEPKNS_4StmtEEdeEv.exit: ; preds = %.lr.ph, %16
  %.in.i = phi ptr [ %17, %16 ], [ %13, %.lr.ph ]
  %18 = load ptr, ptr %.in.i, align 8
  %.not = icmp eq ptr %18, null
  br i1 %.not, label %25, label %19

19:                                               ; preds = %_ZNK5clang16StmtIteratorImplINS_17ConstStmtIteratorEPKNS_4StmtEEdeEv.exit
  %20 = icmp eq ptr %18, %1
  br i1 %20, label %.loopexit, label %21

21:                                               ; preds = %19
  %22 = icmp eq ptr %18, %2
  br i1 %22, label %.loopexit, label %23

23:                                               ; preds = %21
  %24 = call fastcc noundef zeroext i1 @_ZL10seenBeforePKN5clang4StmtES2_S2_(ptr noundef nonnull %18, ptr noundef %1, ptr noundef %2)
  br label %.loopexit

25:                                               ; preds = %_ZNK5clang16StmtIteratorImplINS_17ConstStmtIteratorEPKNS_4StmtEEdeEv.exit
  %26 = load i64, ptr %7, align 8
  %27 = and i64 %26, 3
  %28 = icmp eq i64 %27, 0
  br i1 %28, label %29, label %32

29:                                               ; preds = %25
  %30 = load ptr, ptr %5, align 8
  %31 = getelementptr inbounds i8, ptr %30, i64 8
  store ptr %31, ptr %5, align 8
  br label %_ZN5clang16StmtIteratorImplINS_17ConstStmtIteratorEPKNS_4StmtEEppEv.exit

32:                                               ; preds = %25
  %.not.i = icmp ult i64 %26, 4
  br i1 %.not.i, label %34, label %33

33:                                               ; preds = %32
  call void @_ZN5clang16StmtIteratorBase6NextVAEv(ptr noundef nonnull align 8 dereferenceable(24) %5) #17
  br label %_ZN5clang16StmtIteratorImplINS_17ConstStmtIteratorEPKNS_4StmtEEppEv.exit

34:                                               ; preds = %32
  call void @_ZN5clang16StmtIteratorBase8NextDeclEb(ptr noundef nonnull align 8 dereferenceable(24) %5, i1 noundef zeroext true) #17
  br label %_ZN5clang16StmtIteratorImplINS_17ConstStmtIteratorEPKNS_4StmtEEppEv.exit

_ZN5clang16StmtIteratorImplINS_17ConstStmtIteratorEPKNS_4StmtEEppEv.exit: ; preds = %29, %33, %34
  %35 = load ptr, ptr %5, align 8
  %36 = icmp ne ptr %35, %.sroa.216.24.copyload
  %37 = load i64, ptr %7, align 8
  %38 = icmp ne i64 %37, %.sroa.4.24.copyload
  %.not3.i = select i1 %36, i1 true, i1 %38
  br i1 %.not3.i, label %.lr.ph, label %.loopexit

.loopexit:                                        ; preds = %_ZN5clang16StmtIteratorImplINS_17ConstStmtIteratorEPKNS_4StmtEEppEv.exit, %3, %21, %19, %23
  %.0 = phi i1 [ %24, %23 ], [ true, %19 ], [ false, %21 ], [ false, %3 ], [ false, %_ZN5clang16StmtIteratorImplINS_17ConstStmtIteratorEPKNS_4StmtEEppEv.exit ]
  ret i1 %.0
}